; Function Attrs: mustprogress nounwind uwtable
define dso_local void @_ZN4node7tracing5Agent11StopTracingEv(ptr noundef nonnull align 8 dereferenceable(1312) %this) local_unnamed_addr #3 align 2 {
entry:
  %started_ = getelementptr inbounds i8, ptr %this, i64 856
  %0 = load i8, ptr %started_, align 8
  %1 = and i8 %0, 1
  %tobool.not = icmp eq i8 %1, 0
  br i1 %tobool.not, label %return, label %if.end

if.end:                                           ; preds = %entry
  %tracing_controller_ = getelementptr inbounds i8, ptr %this, i64 976
  %2 = load ptr, ptr %tracing_controller_, align 8
  tail call void @_ZN2v88platform7tracing17TracingController11StopTracingEv(ptr noundef nonnull align 8 dereferenceable(96) %2) #14
  %3 = load ptr, ptr %tracing_controller_, align 8
  tail call void @_ZN2v88platform7tracing17TracingController10InitializeEPNS1_11TraceBufferE(ptr noundef nonnull align 8 dereferenceable(96) %3, ptr noundef null) #14
  store i8 0, ptr %started_, align 8
  %call5 = tail call i32 @uv_thread_join(ptr noundef nonnull %this) #14
  br label %return

return:                                           ; preds = %entry, %if.end
  ret void
}